; Function Attrs: nounwind uwtable
define ptr @l___private_Lean_Meta_FunInfo_0__Lean_Meta_collectDeps(ptr noundef %0, ptr noundef %1) local_unnamed_addr #1 {
lean_nat_eq.exit:
  %2 = load ptr, ptr @l___private_Lean_Meta_FunInfo_0__Lean_Meta_collectDeps___closed__1, align 8, !tbaa !9
  %3 = tail call ptr @l___private_Lean_Meta_FunInfo_0__Lean_Meta_collectDeps_visit(ptr noundef %0, ptr noundef %1, ptr noundef %2)
  %4 = getelementptr i8, ptr %3, i64 8
  %.val = load i64, ptr %4, align 8, !tbaa !12
  %5 = shl i64 %.val, 1
  %.not = icmp eq i64 %5, 0
  br i1 %.not, label %lean_dec.exit33, label %lean_nat_le.exit

lean_nat_le.exit:                                 ; preds = %lean_nat_eq.exit
  %6 = and i64 %.val, 9223372036854775807
  %7 = icmp eq i64 %6, 0
  %8 = add i64 %5, -1
  %9 = inttoptr i64 %8 to ptr
  %.1.i = select i1 %7, ptr inttoptr (i64 1 to ptr), ptr %9
  %10 = or disjoint i64 %5, 1
  %11 = inttoptr i64 %10 to ptr
  %12 = tail call ptr @l_Array_qsort_sort___at___private_Lean_Meta_FunInfo_0__Lean_Meta_collectDeps___spec__1(ptr noundef nonnull %11, ptr noundef nonnull %3, ptr noundef nonnull inttoptr (i64 1 to ptr), ptr noundef nonnull %.1.i, ptr nonnull poison, ptr nonnull poison)
  br label %lean_dec.exit33

lean_dec.exit33:                                  ; preds = %lean_nat_eq.exit, %lean_nat_le.exit
  %.1 = phi ptr [ %12, %lean_nat_le.exit ], [ %3, %lean_nat_eq.exit ]
  ret ptr %.1
}